; Function Attrs: mustprogress nofree norecurse nosync nounwind willreturn memory(argmem: read) uwtable
define noundef zeroext i1 @_ZN32pxrInternal_v0_24__pxrReserved__9GfIsCloseERKNS_10GfMatrix3fES2_d(ptr nocapture noundef nonnull readonly align 4 dereferenceable(36) %0, ptr nocapture noundef nonnull readonly align 4 dereferenceable(36) %1, double noundef %2) local_unnamed_addr #6 {
  br label %.preheader

.preheader:                                       ; preds = %3, %19
  %.01116 = phi i64 [ 0, %3 ], [ %20, %19 ]
  %4 = mul nuw nsw i64 %.01116, 3
  %5 = getelementptr inbounds float, ptr %0, i64 %4
  %6 = getelementptr inbounds float, ptr %1, i64 %4
  br label %9

7:                                                ; preds = %9
  %8 = add nuw nsw i64 %.015, 1
  %exitcond.not = icmp eq i64 %8, 3
  br i1 %exitcond.not, label %19, label %9, !llvm.loop !18

9:                                                ; preds = %.preheader, %7
  %.015 = phi i64 [ 0, %.preheader ], [ %8, %7 ]
  %10 = getelementptr inbounds float, ptr %5, i64 %.015
  %11 = load float, ptr %10, align 4
  %12 = fpext float %11 to double
  %13 = getelementptr inbounds float, ptr %6, i64 %.015
  %14 = load float, ptr %13, align 4
  %15 = fpext float %14 to double
  %16 = fsub double %12, %15
  %17 = tail call double @llvm.fabs.f64(double %16)
  %18 = fcmp olt double %17, %2
  br i1 %18, label %7, label %.loopexit

19:                                               ; preds = %7
  %20 = add nuw nsw i64 %.01116, 1
  %exitcond19 = icmp eq i64 %20, 3
  br i1 %exitcond19, label %.loopexit, label %.preheader, !llvm.loop !19

.loopexit:                                        ; preds = %19, %9
  ret i1 %18
}